target datalayout = "e-m:e-p270:32:32-p271:32:32-p272:64:64-i64:64-i128:128-f80:128-n8:16:32:64-S128"
target triple = "x86_64-pc-linux-gnu"

%struct.dt_mipmap_buffer_t = type { i32, i32, i32, i32, float, ptr, i32, i32, ptr }
%struct.dt_mipmap_buffer_dsc = type <{ i32, i32, float, i64, i32, i32, [36 x i8] }>

; Function Attrs: nounwind uwtable
define void @error_image_f(ptr noundef %0) #0 {
  %2 = alloca ptr, align 8
  %3 = alloca ptr, align 8
  store ptr %0, ptr %2, align 8, !tbaa !6
  %4 = load ptr, ptr %2, align 8, !tbaa !6
  %5 = getelementptr inbounds nuw %struct.dt_mipmap_buffer_t, ptr %4, i32 0, i32 5
  %6 = load ptr, ptr %5, align 8, !tbaa !11
  %7 = icmp ne ptr %6, null
  br i1 %7, label %9, label %8

8:                                                ; preds = %1
  br label %27

9:                                                ; preds = %1
  call void @llvm.lifetime.start.p0(i64 8, ptr %3) #12
  %10 = load ptr, ptr %2, align 8, !tbaa !6
  %11 = getelementptr inbounds nuw %struct.dt_mipmap_buffer_t, ptr %10, i32 0, i32 5
  %12 = load ptr, ptr %11, align 8, !tbaa !11
  %13 = getelementptr inbounds %struct.dt_mipmap_buffer_dsc, ptr %12, i64 -1
  store ptr %13, ptr %3, align 8, !tbaa !17
  %14 = load ptr, ptr %3, align 8, !tbaa !17
  %15 = getelementptr inbounds nuw %struct.dt_mipmap_buffer_dsc, ptr %14, i32 0, i32 1
  store i32 29, ptr %15, align 4, !tbaa !19
  %16 = load ptr, ptr %3, align 8, !tbaa !17
  %17 = getelementptr inbounds nuw %struct.dt_mipmap_buffer_dsc, ptr %16, i32 0, i32 0
  store i32 29, ptr %17, align 64, !tbaa !22
  %18 = load ptr, ptr %3, align 8, !tbaa !17
  %19 = getelementptr inbounds nuw %struct.dt_mipmap_buffer_dsc, ptr %18, i32 0, i32 2
  store float 1.000000e+00, ptr %19, align 8, !tbaa !23
  %20 = load ptr, ptr %3, align 8, !tbaa !17
  %21 = getelementptr inbounds nuw %struct.dt_mipmap_buffer_dsc, ptr %20, i32 0, i32 5
  store i32 8, ptr %21, align 8, !tbaa !24
  %22 = load ptr, ptr %2, align 8, !tbaa !6
  %23 = getelementptr inbounds nuw %struct.dt_mipmap_buffer_t, ptr %22, i32 0, i32 6
  store i32 8, ptr %23, align 8, !tbaa !25
  %24 = load ptr, ptr %2, align 8, !tbaa !6
  %25 = getelementptr inbounds nuw %struct.dt_mipmap_buffer_t, ptr %24, i32 0, i32 5
  %26 = load ptr, ptr %25, align 8, !tbaa !11
  call void @llvm.memcpy.p0.p0.i64(ptr align 1 %26, ptr align 16 @error_image_f.image, i64 13456, i1 false)
  call void @llvm.lifetime.end.p0(i64 8, ptr %3) #12
  br label %27

27:                                               ; preds = %9, %8
  ret void
}