; Function Attrs: mustprogress nofree norecurse nosync nounwind willreturn memory(readwrite, inaccessiblemem: none) uwtable
define void @error_image_f(ptr noundef captures(none) %0) local_unnamed_addr #0 {
  %2 = getelementptr inbounds nuw i8, ptr %0, i64 24
  %3 = load ptr, ptr %2, align 8, !tbaa !6
  %.not = icmp eq ptr %3, null
  br i1 %.not, label %10, label %4

4:                                                ; preds = %1
  %5 = getelementptr inbounds i8, ptr %3, i64 -64
  %6 = getelementptr inbounds i8, ptr %3, i64 -60
  store i32 29, ptr %6, align 4, !tbaa !15
  store i32 29, ptr %5, align 64, !tbaa !18
  %7 = getelementptr inbounds i8, ptr %3, i64 -56
  store float 1.000000e+00, ptr %7, align 8, !tbaa !19
  %8 = getelementptr inbounds i8, ptr %3, i64 -40
  store i32 8, ptr %8, align 8, !tbaa !20
  %9 = getelementptr inbounds nuw i8, ptr %0, i64 32
  store i32 8, ptr %9, align 8, !tbaa !21
  tail call void @llvm.memcpy.p0.p0.i64(ptr noundef nonnull align 1 dereferenceable(13456) %3, ptr noundef nonnull align 16 dereferenceable(13456) @error_image_f.image, i64 13456, i1 false)
  br label %10

10:                                               ; preds = %1, %4
  ret void
}